; Function Attrs: mustprogress uwtable
define void @_ZN17grpc_event_engine12experimental17PosixEndpointImpl27TcpShutdownTracedBufferListEv(ptr noundef nonnull align 16 dereferenceable(904) %0) local_unnamed_addr #5 align 2 personality ptr @__gxx_personality_v0 {
  %2 = alloca %"class.absl::lts_20240722::Status", align 8
  %3 = getelementptr inbounds nuw i8, ptr %0, i64 768
  %4 = load ptr, ptr %3, align 16, !tbaa !285
  %.not = icmp eq ptr %4, null
  br i1 %.not, label %17, label %5

5:                                                ; preds = %1
  %6 = getelementptr inbounds nuw i8, ptr %0, i64 848
  call void @_ZN4absl12lts_2024072213InternalErrorESt17basic_string_viewIcSt11char_traitsIcEE(ptr dead_on_unwind nonnull writable sret(%"class.absl::lts_20240722::Status") align 8 %2, i64 26, ptr nonnull @.str.13)
  invoke void @_ZN17grpc_event_engine12experimental16TracedBufferList8ShutdownEPvN4absl12lts_202407226StatusE(ptr noundef nonnull align 8 dereferenceable(24) %6, ptr noundef nonnull %4, ptr noundef nonnull %2)
          to label %7 unwind label %15

7:                                                ; preds = %5
  %8 = load i64, ptr %2, align 8, !tbaa !82
  %9 = and i64 %8, 1
  %.not.i.i = icmp eq i64 %9, 0
  br i1 %.not.i.i, label %10, label %_ZN4absl12lts_202407226StatusD2Ev.exit

10:                                               ; preds = %7
  %11 = inttoptr i64 %8 to ptr
  invoke void @_ZNK4absl12lts_2024072215status_internal9StatusRep5UnrefEv(ptr noundef nonnull align 8 dereferenceable(48) %11)
          to label %_ZN4absl12lts_202407226StatusD2Ev.exit unwind label %12

12:                                               ; preds = %10
  %13 = landingpad { ptr, i32 }
          catch ptr null
  %14 = extractvalue { ptr, i32 } %13, 0
  call void @__clang_call_terminate(ptr %14) #43
  unreachable

_ZN4absl12lts_202407226StatusD2Ev.exit:           ; preds = %7, %10
  store ptr null, ptr %3, align 16, !tbaa !285
  br label %17

15:                                               ; preds = %5
  %16 = landingpad { ptr, i32 }
          cleanup
  call void @_ZN4absl12lts_202407226StatusD2Ev(ptr noundef nonnull align 8 dereferenceable(8) %2) #41
  resume { ptr, i32 } %16

17:                                               ; preds = %_ZN4absl12lts_202407226StatusD2Ev.exit, %1
  ret void
}